target datalayout = "e-m:e-p270:32:32-p271:32:32-p272:64:64-i64:64-i128:128-f80:128-n8:16:32:64-S128"
target triple = "x86_64-pc-linux-gnu"

%"class.sat::literal" = type { i32 }
%"struct.nlsat::interval" = type { i8, %"class.sat::literal", ptr, %"class.algebraic_numbers::anum", %"class.algebraic_numbers::anum" }
%"class.algebraic_numbers::anum" = type { ptr }
%class._scoped_numeral = type { ptr, %"class.algebraic_numbers::anum" }

; Function Attrs: mustprogress nounwind uwtable
define linkonce_odr hidden noundef nonnull align 8 dereferenceable(8) ptr @_ZNK15_scoped_numeralIN17algebraic_numbers7managerEEcvRKNS0_4anumEEv(ptr noundef nonnull align 8 dereferenceable(16) %0) #4 comdat align 2 {
  %2 = alloca ptr, align 8
  store ptr %0, ptr %2, align 8, !tbaa !96
  %3 = load ptr, ptr %2, align 8
  %4 = getelementptr inbounds nuw %class._scoped_numeral, ptr %3, i32 0, i32 1
  ret ptr %4
}

; Function Attrs: mustprogress uwtable
define hidden noundef i32 @_ZN5nlsat26compare_interval_with_zeroERKNS_8intervalERK15_scoped_numeralIN17algebraic_numbers7managerEERS5_(ptr noundef nonnull align 8 dereferenceable(32) %0, ptr noundef nonnull align 8 dereferenceable(16) %1, ptr noundef nonnull align 8 dereferenceable(17) %2) #6 {
  %4 = alloca i32, align 4
  %5 = alloca ptr, align 8
  %6 = alloca ptr, align 8
  %7 = alloca ptr, align 8
  %8 = alloca i32, align 4
  %9 = alloca i32, align 4
  %10 = alloca i32, align 4
  store ptr %0, ptr %5, align 8, !tbaa !20
  store ptr %1, ptr %6, align 8, !tbaa !96
  store ptr %2, ptr %7, align 8, !tbaa !18
  %11 = load ptr, ptr %5, align 8, !tbaa !20
  %12 = load i8, ptr %11, align 8
  %13 = lshr i8 %12, 3
  %14 = and i8 %13, 1
  %15 = zext i8 %14 to i32
  %16 = icmp ne i32 %15, 0
  br i1 %16, label %42, label %17

17:                                               ; preds = %3
  call void @llvm.lifetime.start.p0(i64 4, ptr %8) #3
  %18 = load ptr, ptr %7, align 8, !tbaa !18
  %19 = load ptr, ptr %5, align 8, !tbaa !20
  %20 = getelementptr inbounds nuw %"struct.nlsat::interval", ptr %19, i32 0, i32 4
  %21 = load ptr, ptr %6, align 8, !tbaa !96
  %22 = call noundef nonnull align 8 dereferenceable(8) ptr @_ZNK15_scoped_numeralIN17algebraic_numbers7managerEEcvRKNS0_4anumEEv(ptr noundef nonnull align 8 dereferenceable(16) %21)
  %23 = call noundef i32 @_ZN17algebraic_numbers7manager7compareERKNS_4anumES3_(ptr noundef nonnull align 8 dereferenceable(17) %18, ptr noundef nonnull align 8 dereferenceable(8) %20, ptr noundef nonnull align 8 dereferenceable(8) %22)
  store i32 %23, ptr %8, align 4, !tbaa !8
  %24 = load i32, ptr %8, align 4, !tbaa !8
  %25 = icmp slt i32 %24, 0
  br i1 %25, label %26, label %27

26:                                               ; preds = %17
  store i32 -1, ptr %4, align 4
  store i32 1, ptr %9, align 4
  br label %39

27:                                               ; preds = %17
  %28 = load i32, ptr %8, align 4, !tbaa !8
  %29 = icmp eq i32 %28, 0
  br i1 %29, label %30, label %38

30:                                               ; preds = %27
  %31 = load ptr, ptr %5, align 8, !tbaa !20
  %32 = load i8, ptr %31, align 8
  %33 = lshr i8 %32, 1
  %34 = and i8 %33, 1
  %35 = zext i8 %34 to i32
  %36 = icmp ne i32 %35, 0
  br i1 %36, label %37, label %38

37:                                               ; preds = %30
  store i32 -1, ptr %4, align 4
  store i32 1, ptr %9, align 4
  br label %39

38:                                               ; preds = %30, %27
  store i32 0, ptr %9, align 4
  br label %39

39:                                               ; preds = %38, %37, %26
  call void @llvm.lifetime.end.p0(i64 4, ptr %8) #3
  %40 = load i32, ptr %9, align 4
  switch i32 %40, label %76 [
    i32 0, label %41
    i32 1, label %74
  ]

41:                                               ; preds = %39
  br label %42

42:                                               ; preds = %41, %3
  %43 = load ptr, ptr %5, align 8, !tbaa !20
  %44 = load i8, ptr %43, align 8
  %45 = lshr i8 %44, 2
  %46 = and i8 %45, 1
  %47 = zext i8 %46 to i32
  %48 = icmp ne i32 %47, 0
  br i1 %48, label %73, label %49

49:                                               ; preds = %42
  call void @llvm.lifetime.start.p0(i64 4, ptr %10) #3
  %50 = load ptr, ptr %7, align 8, !tbaa !18
  %51 = load ptr, ptr %5, align 8, !tbaa !20
  %52 = getelementptr inbounds nuw %"struct.nlsat::interval", ptr %51, i32 0, i32 3
  %53 = load ptr, ptr %6, align 8, !tbaa !96
  %54 = call noundef nonnull align 8 dereferenceable(8) ptr @_ZNK15_scoped_numeralIN17algebraic_numbers7managerEEcvRKNS0_4anumEEv(ptr noundef nonnull align 8 dereferenceable(16) %53)
  %55 = call noundef i32 @_ZN17algebraic_numbers7manager7compareERKNS_4anumES3_(ptr noundef nonnull align 8 dereferenceable(17) %50, ptr noundef nonnull align 8 dereferenceable(8) %52, ptr noundef nonnull align 8 dereferenceable(8) %54)
  store i32 %55, ptr %10, align 4, !tbaa !8
  %56 = load i32, ptr %10, align 4, !tbaa !8
  %57 = icmp sgt i32 %56, 0
  br i1 %57, label %58, label %59

58:                                               ; preds = %49
  store i32 1, ptr %4, align 4
  store i32 1, ptr %9, align 4
  br label %70

59:                                               ; preds = %49
  %60 = load i32, ptr %10, align 4, !tbaa !8
  %61 = icmp eq i32 %60, 0
  br i1 %61, label %62, label %69

62:                                               ; preds = %59
  %63 = load ptr, ptr %5, align 8, !tbaa !20
  %64 = load i8, ptr %63, align 8
  %65 = and i8 %64, 1
  %66 = zext i8 %65 to i32
  %67 = icmp ne i32 %66, 0
  br i1 %67, label %68, label %69

68:                                               ; preds = %62
  store i32 1, ptr %4, align 4
  store i32 1, ptr %9, align 4
  br label %70

69:                                               ; preds = %62, %59
  store i32 0, ptr %9, align 4
  br label %70

70:                                               ; preds = %69, %68, %58
  call void @llvm.lifetime.end.p0(i64 4, ptr %10) #3
  %71 = load i32, ptr %9, align 4
  switch i32 %71, label %76 [
    i32 0, label %72
    i32 1, label %74
  ]

72:                                               ; preds = %70
  br label %73

73:                                               ; preds = %72, %42
  store i32 0, ptr %4, align 4
  br label %74

74:                                               ; preds = %73, %70, %39
  %75 = load i32, ptr %4, align 4
  ret i32 %75

76:                                               ; preds = %70, %39
  unreachable
}