; Function Attrs: mustprogress uwtable
define hidden noundef range(i32 -1, 2) i32 @_ZN5nlsat26compare_interval_with_zeroERKNS_8intervalERK15_scoped_numeralIN17algebraic_numbers7managerEERS5_(ptr noundef nonnull align 8 dereferenceable(32) %0, ptr noundef nonnull align 8 dereferenceable(16) %1, ptr noundef nonnull align 8 dereferenceable(17) %2) local_unnamed_addr #4 {
  %4 = load i8, ptr %0, align 8
  %5 = and i8 %4, 8
  %.not = icmp eq i8 %5, 0
  br i1 %.not, label %6, label %14

6:                                                ; preds = %3
  %7 = getelementptr inbounds nuw i8, ptr %0, i64 24
  %8 = getelementptr inbounds nuw i8, ptr %1, i64 8
  %9 = tail call noundef i32 @_ZN17algebraic_numbers7manager7compareERKNS_4anumES3_(ptr noundef nonnull align 8 dereferenceable(17) %2, ptr noundef nonnull align 8 dereferenceable(8) %7, ptr noundef nonnull align 8 dereferenceable(8) %8)
  %10 = icmp slt i32 %9, 0
  br i1 %10, label %.thread, label %11

11:                                               ; preds = %6
  %12 = icmp ne i32 %9, 0
  %.pre = load i8, ptr %0, align 8
  %13 = and i8 %.pre, 2
  %.not19 = icmp eq i8 %13, 0
  %or.cond = select i1 %12, i1 true, i1 %.not19
  br i1 %or.cond, label %14, label %.thread

14:                                               ; preds = %11, %3
  %15 = phi i8 [ %.pre, %11 ], [ %4, %3 ]
  %16 = and i8 %15, 4
  %.not20 = icmp eq i8 %16, 0
  br i1 %.not20, label %17, label %.thread

17:                                               ; preds = %14
  %18 = getelementptr inbounds nuw i8, ptr %0, i64 16
  %19 = getelementptr inbounds nuw i8, ptr %1, i64 8
  %20 = tail call noundef i32 @_ZN17algebraic_numbers7manager7compareERKNS_4anumES3_(ptr noundef nonnull align 8 dereferenceable(17) %2, ptr noundef nonnull align 8 dereferenceable(8) %18, ptr noundef nonnull align 8 dereferenceable(8) %19)
  %21 = icmp sgt i32 %20, 0
  br i1 %21, label %.thread27, label %22

22:                                               ; preds = %17
  %23 = icmp eq i32 %20, 0
  br i1 %23, label %24, label %.thread

24:                                               ; preds = %22
  %25 = load i8, ptr %0, align 8
  %26 = and i8 %25, 1
  %.not21 = icmp eq i8 %26, 0
  br i1 %.not21, label %.thread, label %.thread27

.thread27:                                        ; preds = %17, %24
  br label %.thread

.thread:                                          ; preds = %11, %6, %14, %22, %24, %.thread27
  %.2 = phi i32 [ 1, %.thread27 ], [ 0, %24 ], [ 0, %22 ], [ 0, %14 ], [ -1, %6 ], [ -1, %11 ]
  ret i32 %.2
}